target datalayout = "e-m:e-p270:32:32-p271:32:32-p272:64:64-i64:64-i128:128-f80:128-n8:16:32:64-S128"
target triple = "x86_64-pc-linux-gnu"

; Function Attrs: inlinehint nounwind uwtable
define internal zeroext i8 @clip_8b(i32 noundef %0) #4 {
  %2 = alloca i32, align 4
  store i32 %0, ptr %2, align 4, !tbaa !9
  %3 = load i32, ptr %2, align 4, !tbaa !9
  %4 = and i32 %3, -256
  %5 = icmp ne i32 %4, 0
  br i1 %5, label %8, label %6

6:                                                ; preds = %1
  %7 = load i32, ptr %2, align 4, !tbaa !9
  br label %12

8:                                                ; preds = %1
  %9 = load i32, ptr %2, align 4, !tbaa !9
  %10 = icmp slt i32 %9, 0
  %11 = select i1 %10, i32 0, i32 255
  br label %12

12:                                               ; preds = %8, %6
  %13 = phi i32 [ %7, %6 ], [ %11, %8 ]
  %14 = trunc i32 %13 to i8
  ret i8 %14
}

; Function Attrs: inlinehint nounwind uwtable
define internal void @ITransformOne(ptr noalias noundef %0, ptr noalias noundef %1, ptr noalias noundef %2) #4 {
  %4 = alloca ptr, align 8
  %5 = alloca ptr, align 8
  %6 = alloca ptr, align 8
  %7 = alloca [16 x i32], align 16
  %8 = alloca ptr, align 8
  %9 = alloca i32, align 4
  %10 = alloca i32, align 4
  %11 = alloca i32, align 4
  %12 = alloca i32, align 4
  %13 = alloca i32, align 4
  %14 = alloca i32, align 4
  %15 = alloca i32, align 4
  %16 = alloca i32, align 4
  %17 = alloca i32, align 4
  %18 = alloca i32, align 4
  store ptr %0, ptr %4, align 8, !tbaa !18
  store ptr %1, ptr %5, align 8, !tbaa !20
  store ptr %2, ptr %6, align 8, !tbaa !18
  call void @llvm.lifetime.start.p0(i64 64, ptr %7) #8
  call void @llvm.lifetime.start.p0(i64 8, ptr %8) #8
  call void @llvm.lifetime.start.p0(i64 4, ptr %9) #8
  %19 = getelementptr inbounds [16 x i32], ptr %7, i64 0, i64 0
  store ptr %19, ptr %8, align 8, !tbaa !3
  store i32 0, ptr %9, align 4, !tbaa !9
  br label %20

20:                                               ; preds = %102, %3
  %21 = load i32, ptr %9, align 4, !tbaa !9
  %22 = icmp slt i32 %21, 4
  br i1 %22, label %23, label %105

23:                                               ; preds = %20
  call void @llvm.lifetime.start.p0(i64 4, ptr %10) #8
  %24 = load ptr, ptr %5, align 8, !tbaa !20
  %25 = getelementptr inbounds i16, ptr %24, i64 0
  %26 = load i16, ptr %25, align 2, !tbaa !23
  %27 = sext i16 %26 to i32
  %28 = load ptr, ptr %5, align 8, !tbaa !20
  %29 = getelementptr inbounds i16, ptr %28, i64 8
  %30 = load i16, ptr %29, align 2, !tbaa !23
  %31 = sext i16 %30 to i32
  %32 = add nsw i32 %27, %31
  store i32 %32, ptr %10, align 4, !tbaa !9
  call void @llvm.lifetime.start.p0(i64 4, ptr %11) #8
  %33 = load ptr, ptr %5, align 8, !tbaa !20
  %34 = getelementptr inbounds i16, ptr %33, i64 0
  %35 = load i16, ptr %34, align 2, !tbaa !23
  %36 = sext i16 %35 to i32
  %37 = load ptr, ptr %5, align 8, !tbaa !20
  %38 = getelementptr inbounds i16, ptr %37, i64 8
  %39 = load i16, ptr %38, align 2, !tbaa !23
  %40 = sext i16 %39 to i32
  %41 = sub nsw i32 %36, %40
  store i32 %41, ptr %11, align 4, !tbaa !9
  call void @llvm.lifetime.start.p0(i64 4, ptr %12) #8
  %42 = load ptr, ptr %5, align 8, !tbaa !20
  %43 = getelementptr inbounds i16, ptr %42, i64 4
  %44 = load i16, ptr %43, align 2, !tbaa !23
  %45 = sext i16 %44 to i32
  %46 = mul nsw i32 %45, 35468
  %47 = ashr i32 %46, 16
  %48 = load ptr, ptr %5, align 8, !tbaa !20
  %49 = getelementptr inbounds i16, ptr %48, i64 12
  %50 = load i16, ptr %49, align 2, !tbaa !23
  %51 = sext i16 %50 to i32
  %52 = mul nsw i32 %51, 20091
  %53 = ashr i32 %52, 16
  %54 = load ptr, ptr %5, align 8, !tbaa !20
  %55 = getelementptr inbounds i16, ptr %54, i64 12
  %56 = load i16, ptr %55, align 2, !tbaa !23
  %57 = sext i16 %56 to i32
  %58 = add nsw i32 %53, %57
  %59 = sub nsw i32 %47, %58
  store i32 %59, ptr %12, align 4, !tbaa !9
  call void @llvm.lifetime.start.p0(i64 4, ptr %13) #8
  %60 = load ptr, ptr %5, align 8, !tbaa !20
  %61 = getelementptr inbounds i16, ptr %60, i64 4
  %62 = load i16, ptr %61, align 2, !tbaa !23
  %63 = sext i16 %62 to i32
  %64 = mul nsw i32 %63, 20091
  %65 = ashr i32 %64, 16
  %66 = load ptr, ptr %5, align 8, !tbaa !20
  %67 = getelementptr inbounds i16, ptr %66, i64 4
  %68 = load i16, ptr %67, align 2, !tbaa !23
  %69 = sext i16 %68 to i32
  %70 = add nsw i32 %65, %69
  %71 = load ptr, ptr %5, align 8, !tbaa !20
  %72 = getelementptr inbounds i16, ptr %71, i64 12
  %73 = load i16, ptr %72, align 2, !tbaa !23
  %74 = sext i16 %73 to i32
  %75 = mul nsw i32 %74, 35468
  %76 = ashr i32 %75, 16
  %77 = add nsw i32 %70, %76
  store i32 %77, ptr %13, align 4, !tbaa !9
  %78 = load i32, ptr %10, align 4, !tbaa !9
  %79 = load i32, ptr %13, align 4, !tbaa !9
  %80 = add nsw i32 %78, %79
  %81 = load ptr, ptr %8, align 8, !tbaa !3
  %82 = getelementptr inbounds i32, ptr %81, i64 0
  store i32 %80, ptr %82, align 4, !tbaa !9
  %83 = load i32, ptr %11, align 4, !tbaa !9
  %84 = load i32, ptr %12, align 4, !tbaa !9
  %85 = add nsw i32 %83, %84
  %86 = load ptr, ptr %8, align 8, !tbaa !3
  %87 = getelementptr inbounds i32, ptr %86, i64 1
  store i32 %85, ptr %87, align 4, !tbaa !9
  %88 = load i32, ptr %11, align 4, !tbaa !9
  %89 = load i32, ptr %12, align 4, !tbaa !9
  %90 = sub nsw i32 %88, %89
  %91 = load ptr, ptr %8, align 8, !tbaa !3
  %92 = getelementptr inbounds i32, ptr %91, i64 2
  store i32 %90, ptr %92, align 4, !tbaa !9
  %93 = load i32, ptr %10, align 4, !tbaa !9
  %94 = load i32, ptr %13, align 4, !tbaa !9
  %95 = sub nsw i32 %93, %94
  %96 = load ptr, ptr %8, align 8, !tbaa !3
  %97 = getelementptr inbounds i32, ptr %96, i64 3
  store i32 %95, ptr %97, align 4, !tbaa !9
  %98 = load ptr, ptr %8, align 8, !tbaa !3
  %99 = getelementptr inbounds i32, ptr %98, i64 4
  store ptr %99, ptr %8, align 8, !tbaa !3
  %100 = load ptr, ptr %5, align 8, !tbaa !20
  %101 = getelementptr inbounds nuw i16, ptr %100, i32 1
  store ptr %101, ptr %5, align 8, !tbaa !20
  call void @llvm.lifetime.end.p0(i64 4, ptr %13) #8
  call void @llvm.lifetime.end.p0(i64 4, ptr %12) #8
  call void @llvm.lifetime.end.p0(i64 4, ptr %11) #8
  call void @llvm.lifetime.end.p0(i64 4, ptr %10) #8
  br label %102

102:                                              ; preds = %23
  %103 = load i32, ptr %9, align 4, !tbaa !9
  %104 = add nsw i32 %103, 1
  store i32 %104, ptr %9, align 4, !tbaa !9
  br label %20, !llvm.loop !38

105:                                              ; preds = %20
  %106 = getelementptr inbounds [16 x i32], ptr %7, i64 0, i64 0
  store ptr %106, ptr %8, align 8, !tbaa !3
  store i32 0, ptr %9, align 4, !tbaa !9
  br label %107

107:                                              ; preds = %237, %105
  %108 = load i32, ptr %9, align 4, !tbaa !9
  %109 = icmp slt i32 %108, 4
  br i1 %109, label %110, label %240

110:                                              ; preds = %107
  call void @llvm.lifetime.start.p0(i64 4, ptr %14) #8
  %111 = load ptr, ptr %8, align 8, !tbaa !3
  %112 = getelementptr inbounds i32, ptr %111, i64 0
  %113 = load i32, ptr %112, align 4, !tbaa !9
  %114 = add nsw i32 %113, 4
  store i32 %114, ptr %14, align 4, !tbaa !9
  call void @llvm.lifetime.start.p0(i64 4, ptr %15) #8
  %115 = load i32, ptr %14, align 4, !tbaa !9
  %116 = load ptr, ptr %8, align 8, !tbaa !3
  %117 = getelementptr inbounds i32, ptr %116, i64 8
  %118 = load i32, ptr %117, align 4, !tbaa !9
  %119 = add nsw i32 %115, %118
  store i32 %119, ptr %15, align 4, !tbaa !9
  call void @llvm.lifetime.start.p0(i64 4, ptr %16) #8
  %120 = load i32, ptr %14, align 4, !tbaa !9
  %121 = load ptr, ptr %8, align 8, !tbaa !3
  %122 = getelementptr inbounds i32, ptr %121, i64 8
  %123 = load i32, ptr %122, align 4, !tbaa !9
  %124 = sub nsw i32 %120, %123
  store i32 %124, ptr %16, align 4, !tbaa !9
  call void @llvm.lifetime.start.p0(i64 4, ptr %17) #8
  %125 = load ptr, ptr %8, align 8, !tbaa !3
  %126 = getelementptr inbounds i32, ptr %125, i64 4
  %127 = load i32, ptr %126, align 4, !tbaa !9
  %128 = mul nsw i32 %127, 35468
  %129 = ashr i32 %128, 16
  %130 = load ptr, ptr %8, align 8, !tbaa !3
  %131 = getelementptr inbounds i32, ptr %130, i64 12
  %132 = load i32, ptr %131, align 4, !tbaa !9
  %133 = mul nsw i32 %132, 20091
  %134 = ashr i32 %133, 16
  %135 = load ptr, ptr %8, align 8, !tbaa !3
  %136 = getelementptr inbounds i32, ptr %135, i64 12
  %137 = load i32, ptr %136, align 4, !tbaa !9
  %138 = add nsw i32 %134, %137
  %139 = sub nsw i32 %129, %138
  store i32 %139, ptr %17, align 4, !tbaa !9
  call void @llvm.lifetime.start.p0(i64 4, ptr %18) #8
  %140 = load ptr, ptr %8, align 8, !tbaa !3
  %141 = getelementptr inbounds i32, ptr %140, i64 4
  %142 = load i32, ptr %141, align 4, !tbaa !9
  %143 = mul nsw i32 %142, 20091
  %144 = ashr i32 %143, 16
  %145 = load ptr, ptr %8, align 8, !tbaa !3
  %146 = getelementptr inbounds i32, ptr %145, i64 4
  %147 = load i32, ptr %146, align 4, !tbaa !9
  %148 = add nsw i32 %144, %147
  %149 = load ptr, ptr %8, align 8, !tbaa !3
  %150 = getelementptr inbounds i32, ptr %149, i64 12
  %151 = load i32, ptr %150, align 4, !tbaa !9
  %152 = mul nsw i32 %151, 35468
  %153 = ashr i32 %152, 16
  %154 = add nsw i32 %148, %153
  store i32 %154, ptr %18, align 4, !tbaa !9
  %155 = load ptr, ptr %4, align 8, !tbaa !18
  %156 = load i32, ptr %9, align 4, !tbaa !9
  %157 = mul nsw i32 %156, 32
  %158 = add nsw i32 0, %157
  %159 = sext i32 %158 to i64
  %160 = getelementptr inbounds i8, ptr %155, i64 %159
  %161 = load i8, ptr %160, align 1, !tbaa !16
  %162 = zext i8 %161 to i32
  %163 = load i32, ptr %15, align 4, !tbaa !9
  %164 = load i32, ptr %18, align 4, !tbaa !9
  %165 = add nsw i32 %163, %164
  %166 = ashr i32 %165, 3
  %167 = add nsw i32 %162, %166
  %168 = call zeroext i8 @clip_8b(i32 noundef %167)
  %169 = load ptr, ptr %6, align 8, !tbaa !18
  %170 = load i32, ptr %9, align 4, !tbaa !9
  %171 = mul nsw i32 %170, 32
  %172 = add nsw i32 0, %171
  %173 = sext i32 %172 to i64
  %174 = getelementptr inbounds i8, ptr %169, i64 %173
  store i8 %168, ptr %174, align 1, !tbaa !16
  %175 = load ptr, ptr %4, align 8, !tbaa !18
  %176 = load i32, ptr %9, align 4, !tbaa !9
  %177 = mul nsw i32 %176, 32
  %178 = add nsw i32 1, %177
  %179 = sext i32 %178 to i64
  %180 = getelementptr inbounds i8, ptr %175, i64 %179
  %181 = load i8, ptr %180, align 1, !tbaa !16
  %182 = zext i8 %181 to i32
  %183 = load i32, ptr %16, align 4, !tbaa !9
  %184 = load i32, ptr %17, align 4, !tbaa !9
  %185 = add nsw i32 %183, %184
  %186 = ashr i32 %185, 3
  %187 = add nsw i32 %182, %186
  %188 = call zeroext i8 @clip_8b(i32 noundef %187)
  %189 = load ptr, ptr %6, align 8, !tbaa !18
  %190 = load i32, ptr %9, align 4, !tbaa !9
  %191 = mul nsw i32 %190, 32
  %192 = add nsw i32 1, %191
  %193 = sext i32 %192 to i64
  %194 = getelementptr inbounds i8, ptr %189, i64 %193
  store i8 %188, ptr %194, align 1, !tbaa !16
  %195 = load ptr, ptr %4, align 8, !tbaa !18
  %196 = load i32, ptr %9, align 4, !tbaa !9
  %197 = mul nsw i32 %196, 32
  %198 = add nsw i32 2, %197
  %199 = sext i32 %198 to i64
  %200 = getelementptr inbounds i8, ptr %195, i64 %199
  %201 = load i8, ptr %200, align 1, !tbaa !16
  %202 = zext i8 %201 to i32
  %203 = load i32, ptr %16, align 4, !tbaa !9
  %204 = load i32, ptr %17, align 4, !tbaa !9
  %205 = sub nsw i32 %203, %204
  %206 = ashr i32 %205, 3
  %207 = add nsw i32 %202, %206
  %208 = call zeroext i8 @clip_8b(i32 noundef %207)
  %209 = load ptr, ptr %6, align 8, !tbaa !18
  %210 = load i32, ptr %9, align 4, !tbaa !9
  %211 = mul nsw i32 %210, 32
  %212 = add nsw i32 2, %211
  %213 = sext i32 %212 to i64
  %214 = getelementptr inbounds i8, ptr %209, i64 %213
  store i8 %208, ptr %214, align 1, !tbaa !16
  %215 = load ptr, ptr %4, align 8, !tbaa !18
  %216 = load i32, ptr %9, align 4, !tbaa !9
  %217 = mul nsw i32 %216, 32
  %218 = add nsw i32 3, %217
  %219 = sext i32 %218 to i64
  %220 = getelementptr inbounds i8, ptr %215, i64 %219
  %221 = load i8, ptr %220, align 1, !tbaa !16
  %222 = zext i8 %221 to i32
  %223 = load i32, ptr %15, align 4, !tbaa !9
  %224 = load i32, ptr %18, align 4, !tbaa !9
  %225 = sub nsw i32 %223, %224
  %226 = ashr i32 %225, 3
  %227 = add nsw i32 %222, %226
  %228 = call zeroext i8 @clip_8b(i32 noundef %227)
  %229 = load ptr, ptr %6, align 8, !tbaa !18
  %230 = load i32, ptr %9, align 4, !tbaa !9
  %231 = mul nsw i32 %230, 32
  %232 = add nsw i32 3, %231
  %233 = sext i32 %232 to i64
  %234 = getelementptr inbounds i8, ptr %229, i64 %233
  store i8 %228, ptr %234, align 1, !tbaa !16
  %235 = load ptr, ptr %8, align 8, !tbaa !3
  %236 = getelementptr inbounds nuw i32, ptr %235, i32 1
  store ptr %236, ptr %8, align 8, !tbaa !3
  call void @llvm.lifetime.end.p0(i64 4, ptr %18) #8
  call void @llvm.lifetime.end.p0(i64 4, ptr %17) #8
  call void @llvm.lifetime.end.p0(i64 4, ptr %16) #8
  call void @llvm.lifetime.end.p0(i64 4, ptr %15) #8
  call void @llvm.lifetime.end.p0(i64 4, ptr %14) #8
  br label %237

237:                                              ; preds = %110
  %238 = load i32, ptr %9, align 4, !tbaa !9
  %239 = add nsw i32 %238, 1
  store i32 %239, ptr %9, align 4, !tbaa !9
  br label %107, !llvm.loop !39

240:                                              ; preds = %107
  call void @llvm.lifetime.end.p0(i64 4, ptr %9) #8
  call void @llvm.lifetime.end.p0(i64 8, ptr %8) #8
  call void @llvm.lifetime.end.p0(i64 64, ptr %7) #8
  ret void
}