; Function Attrs: inlinehint nofree norecurse nosync nounwind memory(argmem: readwrite) uwtable
define internal fastcc void @ITransformOne(ptr noalias noundef readonly captures(none) %0, ptr noalias noundef readonly captures(none) %1, ptr noalias noundef writeonly captures(none) %2) unnamed_addr #9 {
  %4 = alloca [16 x i32], align 16
  call void @llvm.lifetime.start.p0(i64 64, ptr nonnull %4) #15
  br label %5

5:                                                ; preds = %3, %5
  %.073 = phi ptr [ %1, %3 ], [ %39, %5 ]
  %.06372 = phi ptr [ %4, %3 ], [ %38, %5 ]
  %.06471 = phi i32 [ 0, %3 ], [ %40, %5 ]
  %6 = load i16, ptr %.073, align 2, !tbaa !17
  %7 = sext i16 %6 to i32
  %8 = getelementptr inbounds nuw i8, ptr %.073, i64 16
  %9 = load i16, ptr %8, align 2, !tbaa !17
  %10 = sext i16 %9 to i32
  %11 = add nsw i32 %10, %7
  %12 = sub nsw i32 %7, %10
  %13 = getelementptr inbounds nuw i8, ptr %.073, i64 8
  %14 = load i16, ptr %13, align 2, !tbaa !17
  %15 = sext i16 %14 to i32
  %16 = mul nsw i32 %15, 35468
  %17 = ashr i32 %16, 16
  %18 = getelementptr inbounds nuw i8, ptr %.073, i64 24
  %19 = load i16, ptr %18, align 2, !tbaa !17
  %20 = sext i16 %19 to i32
  %21 = mul nsw i32 %20, 20091
  %22 = ashr i32 %21, 16
  %23 = add nsw i32 %22, %20
  %24 = sub nsw i32 %17, %23
  %25 = mul nsw i32 %15, 20091
  %26 = ashr i32 %25, 16
  %27 = add nsw i32 %26, %15
  %28 = mul nsw i32 %20, 35468
  %29 = ashr i32 %28, 16
  %30 = add nsw i32 %27, %29
  %31 = add nsw i32 %30, %11
  store i32 %31, ptr %.06372, align 4, !tbaa !3
  %32 = add nsw i32 %24, %12
  %33 = getelementptr inbounds nuw i8, ptr %.06372, i64 4
  store i32 %32, ptr %33, align 4, !tbaa !3
  %34 = sub nsw i32 %12, %24
  %35 = getelementptr inbounds nuw i8, ptr %.06372, i64 8
  store i32 %34, ptr %35, align 4, !tbaa !3
  %36 = sub nsw i32 %11, %30
  %37 = getelementptr inbounds nuw i8, ptr %.06372, i64 12
  store i32 %36, ptr %37, align 4, !tbaa !3
  %38 = getelementptr inbounds nuw i8, ptr %.06372, i64 16
  %39 = getelementptr inbounds nuw i8, ptr %.073, i64 2
  %40 = add nuw nsw i32 %.06471, 1
  %exitcond.not = icmp eq i32 %40, 4
  br i1 %exitcond.not, label %.preheader, label %5, !llvm.loop !285

.preheader:                                       ; preds = %5, %.preheader
  %indvars.iv = phi i64 [ %indvars.iv.next, %.preheader ], [ 0, %5 ]
  %.175 = phi ptr [ %107, %.preheader ], [ %4, %5 ]
  %41 = load i32, ptr %.175, align 4, !tbaa !3
  %42 = add nsw i32 %41, 4
  %43 = getelementptr inbounds nuw i8, ptr %.175, i64 32
  %44 = load i32, ptr %43, align 4, !tbaa !3
  %45 = add nsw i32 %42, %44
  %46 = sub nsw i32 %42, %44
  %47 = getelementptr inbounds nuw i8, ptr %.175, i64 16
  %48 = load i32, ptr %47, align 4, !tbaa !3
  %49 = mul nsw i32 %48, 35468
  %50 = ashr i32 %49, 16
  %51 = getelementptr inbounds nuw i8, ptr %.175, i64 48
  %52 = load i32, ptr %51, align 4, !tbaa !3
  %53 = mul nsw i32 %52, 20091
  %54 = ashr i32 %53, 16
  %55 = add i32 %52, %54
  %56 = sub i32 %50, %55
  %57 = mul nsw i32 %48, 20091
  %58 = ashr i32 %57, 16
  %59 = add nsw i32 %58, %48
  %60 = mul nsw i32 %52, 35468
  %61 = ashr i32 %60, 16
  %62 = add nsw i32 %59, %61
  %63 = shl nuw nsw i64 %indvars.iv, 5
  %64 = getelementptr inbounds nuw i8, ptr %0, i64 %63
  %65 = load i8, ptr %64, align 1, !tbaa !14
  %66 = zext i8 %65 to i32
  %67 = add nsw i32 %62, %45
  %68 = ashr i32 %67, 3
  %69 = add nsw i32 %68, %66
  %70 = tail call i32 @llvm.smax.i32(i32 range(i32 -2147483648, 268435711) %69, i32 0)
  %71 = tail call i32 @llvm.umin.i32(i32 %70, i32 255)
  %72 = trunc nuw i32 %71 to i8
  %73 = getelementptr inbounds nuw i8, ptr %2, i64 %63
  store i8 %72, ptr %73, align 1, !tbaa !14
  %74 = or disjoint i64 %63, 1
  %75 = getelementptr inbounds nuw i8, ptr %0, i64 %74
  %76 = load i8, ptr %75, align 1, !tbaa !14
  %77 = zext i8 %76 to i32
  %78 = add nsw i32 %56, %46
  %79 = ashr i32 %78, 3
  %80 = add nsw i32 %79, %77
  %81 = tail call i32 @llvm.smax.i32(i32 range(i32 -2147483648, 268435711) %80, i32 0)
  %82 = tail call i32 @llvm.umin.i32(i32 %81, i32 255)
  %83 = trunc nuw i32 %82 to i8
  %84 = getelementptr inbounds nuw i8, ptr %2, i64 %74
  store i8 %83, ptr %84, align 1, !tbaa !14
  %85 = or disjoint i64 %63, 2
  %86 = getelementptr inbounds nuw i8, ptr %0, i64 %85
  %87 = load i8, ptr %86, align 1, !tbaa !14
  %88 = zext i8 %87 to i32
  %89 = sub nsw i32 %46, %56
  %90 = ashr i32 %89, 3
  %91 = add nsw i32 %90, %88
  %92 = tail call i32 @llvm.smax.i32(i32 range(i32 -2147483648, 268435711) %91, i32 0)
  %93 = tail call i32 @llvm.umin.i32(i32 %92, i32 255)
  %94 = trunc nuw i32 %93 to i8
  %95 = getelementptr inbounds nuw i8, ptr %2, i64 %85
  store i8 %94, ptr %95, align 1, !tbaa !14
  %96 = or disjoint i64 %63, 3
  %97 = getelementptr inbounds nuw i8, ptr %0, i64 %96
  %98 = load i8, ptr %97, align 1, !tbaa !14
  %99 = zext i8 %98 to i32
  %100 = sub nsw i32 %45, %62
  %101 = ashr i32 %100, 3
  %102 = add nsw i32 %101, %99
  %103 = tail call i32 @llvm.smax.i32(i32 range(i32 -2147483648, 268435711) %102, i32 0)
  %104 = tail call i32 @llvm.umin.i32(i32 %103, i32 255)
  %105 = trunc nuw i32 %104 to i8
  %106 = getelementptr inbounds nuw i8, ptr %2, i64 %96
  store i8 %105, ptr %106, align 1, !tbaa !14
  %107 = getelementptr inbounds nuw i8, ptr %.175, i64 4
  %indvars.iv.next = add nuw nsw i64 %indvars.iv, 1
  %exitcond77.not = icmp eq i64 %indvars.iv.next, 4
  br i1 %exitcond77.not, label %108, label %.preheader, !llvm.loop !286

108:                                              ; preds = %.preheader
  call void @llvm.lifetime.end.p0(i64 64, ptr nonnull %4) #15
  ret void
}